(dp0
Vytest
p1
c__builtin__
set
p2
((lp3
S'https://robertsspaceindustries.com/comm-link/engineering'
p4
aS'https://robertsspaceindustries.com/comm-link/transmission'
p5
aS'https://robertsspaceindustries.com/comm-link/citizens'
p6
atp7
Rp8
sVztest
p9
g2
((lp10
g4
aS'https://robertsspaceindustries.com/comm-link/spectrum-dispatch'
p11
aS'https://robertsspaceindustries.com/comm-link/transmission'
p12
ag6
atp13
Rp14
s.